Certificate:
    Data:
        Version: 3 (0x2)
        Serial Number: 7 (0x7)
    Signature Algorithm: sha256WithRSAEncryption
        Issuer: C=GI, ST=Gibraltar, L=Gibraltar, O=PhoneX, OU=CA, CN=ca.phone-x.net/emailAddress=admin@phone-x.net
        Validity
            Not Before: Sep  3 12:28:37 2015 GMT
            Not After : Sep  2 12:28:37 2018 GMT
        Subject: C=GI, ST=Gibraltar, O=PhoneX, OU=Server, CN=phone-x.net/emailAddress=admin@phone-x.net
        Subject Public Key Info:
            Public Key Algorithm: rsaEncryption
                Public-Key: (4096 bit)
                Modulus:
                    00:b5:21:d6:0c:c7:4b:ee:6b:d1:a4:48:f3:6d:f9:
                    00:ba:be:16:e1:79:34:8d:3e:3b:7b:01:69:a5:d2:
                    ad:4b:73:ab:b8:07:d0:99:52:77:5c:ac:81:4e:6f:
                    22:66:00:5a:4d:7a:70:25:b1:3f:ee:43:4a:a8:6f:
                    5b:c0:d2:84:8c:28:42:e5:3a:30:c5:c7:30:43:b2:
                    6f:19:20:b0:53:4d:05:3b:6f:c6:93:e6:f7:b7:a3:
                    d6:41:28:eb:b9:1f:12:4a:98:9b:31:9c:7b:7a:10:
                    b7:9f:c2:47:18:9a:8f:a8:89:1f:bd:91:76:a4:66:
                    60:d0:1b:4a:cc:8d:29:d7:82:26:bc:e1:2f:c7:fd:
                    5b:61:cc:04:fe:9c:07:17:50:55:8e:54:73:08:e2:
                    6d:d7:75:1e:5b:e9:0a:20:af:84:86:f0:77:93:e8:
                    38:7a:d9:03:68:8d:0e:d4:5e:bd:3a:2c:97:18:ce:
                    35:91:36:df:1e:76:43:cd:65:75:3b:5e:64:40:10:
                    df:91:49:20:d1:80:0f:20:59:b6:40:d8:3d:2f:33:
                    e1:bd:aa:38:7d:71:35:21:9d:e2:8d:97:44:f5:de:
                    05:e6:c9:ea:51:b2:21:3e:44:2d:f2:2e:89:eb:79:
                    68:1d:71:53:b0:82:61:a7:15:9d:c7:4a:c4:90:63:
                    cd:76:fc:84:4c:d4:bf:56:7b:cb:1a:b5:a9:0e:11:
                    47:cf:01:89:f1:49:80:d6:14:1d:6c:e9:47:ae:63:
                    07:24:fa:99:3b:4a:0c:69:6b:9f:a6:d4:d1:61:c6:
                    69:4a:4c:5f:6c:66:dc:96:ff:69:ce:a2:fb:6c:fe:
                    4d:a3:39:b6:02:52:cf:f0:a4:14:c0:9a:0e:54:c0:
                    e8:12:6a:f1:89:17:5c:69:52:b8:96:fc:ca:b0:01:
                    3d:86:50:af:7b:49:e6:ab:bf:b2:9e:da:49:0d:8a:
                    05:c2:d4:9e:08:ee:72:04:2e:9a:9b:9d:0f:34:a4:
                    aa:42:70:c5:9b:50:04:9f:8e:e8:c0:4d:05:0d:66:
                    9f:ca:1e:c0:0b:60:bc:22:50:6b:2a:2c:12:5b:20:
                    48:72:ba:ad:05:3c:4b:44:a9:67:7e:5e:65:c5:25:
                    1a:0e:0a:5f:e2:86:dc:d8:13:f8:74:4f:62:33:a0:
                    45:63:0e:dc:68:60:bf:4f:3b:f3:e8:22:38:96:64:
                    eb:1f:af:1c:c5:08:ec:ec:9f:34:be:c0:97:a3:06:
                    14:e0:be:39:9c:49:88:9e:1e:39:ed:b8:23:f7:1f:
                    b8:94:82:97:0b:85:f9:63:6b:c8:9f:ef:0f:ce:be:
                    76:83:c4:4c:bd:0c:30:7f:b3:f7:17:b6:d2:c2:17:
                    61:8f:2d
                Exponent: 65537 (0x10001)
        X509v3 extensions:
            X509v3 Subject Key Identifier: 
                A4:FF:56:ED:D6:ED:E9:65:C1:B8:B9:9F:DB:95:D6:B5:A5:40:3C:BE
            X509v3 Authority Key Identifier: 
                keyid:4D:D4:E0:6E:CF:EF:EC:DE:A2:4F:E8:F5:A5:47:BD:8F:4F:88:6B:B4

            X509v3 Basic Constraints: 
                CA:TRUE
    Signature Algorithm: sha256WithRSAEncryption
         1d:2e:b7:34:7c:02:53:b8:6c:d3:cc:94:a4:2b:1f:f2:40:51:
         7a:ce:80:fe:c8:28:ac:f6:13:ed:e3:dc:cc:be:16:17:39:de:
         a0:f6:c4:84:68:b3:d9:ab:34:83:6c:9c:04:7b:b1:87:db:83:
         e5:da:c7:2e:53:a7:6d:da:04:2e:76:b9:b6:9a:0b:2d:b2:bc:
         a3:2f:ff:70:2a:11:c2:00:88:26:6c:a1:d9:9f:a3:16:49:35:
         4a:98:9e:6c:c2:b1:64:97:8e:78:00:e1:1d:2f:85:73:1b:ca:
         d9:a7:5c:43:d5:87:70:fa:55:a4:89:dc:72:ff:d0:3c:9d:f5:
         21:95:4b:82:b3:48:0b:a0:74:ff:f1:2e:b8:6d:e1:1e:9b:d2:
         b6:19:62:6b:b3:99:6d:ca:4d:f7:ae:74:44:3d:9c:22:41:58:
         2c:dd:af:61:14:cb:bd:b8:4e:9d:94:19:af:7f:3d:e2:6d:28:
         72:5e:54:44:e8:ed:5c:e6:61:01:91:8f:f1:ac:7d:89:29:b9:
         9c:20:e7:c2:a1:ad:55:87:5f:21:c3:2c:41:1b:d6:cd:50:80:
         38:4e:ad:13:df:c5:e0:4b:8f:8a:ad:cc:d5:ed:27:09:f8:75:
         db:33:ff:6a:0f:95:19:bb:4e:84:0d:23:c7:e4:6b:fa:36:18:
         f5:44:f2:81:c7:74:c9:d4:c6:39:cd:22:ff:0e:23:03:66:f8:
         9d:8c:04:f3:b8:1d:c3:75:6b:cf:5b:e2:43:46:de:1d:08:ff:
         61:fa:f6:25:f1:5f:a7:d9:21:a1:6b:61:29:6d:b1:58:1d:e9:
         6b:eb:3b:7b:7f:d1:a1:78:58:1e:e4:f0:0b:c1:4d:73:dc:b6:
         91:ba:eb:06:f0:3a:91:05:50:3a:ae:b0:71:ae:2f:a3:ba:53:
         43:25:36:03:ef:b8:90:e3:68:7b:ab:47:f8:e2:ad:3e:e9:7d:
         18:06:a8:ea:2c:d0:1c:82:a7:c4:da:bf:2f:a2:4b:b7:58:03:
         fb:4c:31:e0:60:63:35:0b:57:be:ff:2b:75:19:6e:1c:7b:41:
         b8:dc:e3:62:68:7e:33:3d:d9:c2:48:4e:aa:c0:54:eb:f3:55:
         c0:6d:d3:e9:9d:e6:45:db:d3:e5:d3:42:ef:b9:c2:ad:8c:27:
         52:3e:8c:ec:ff:9d:65:a4:35:80:12:57:0c:8c:b0:59:8a:4f:
         0d:a9:bc:8d:bb:ae:7d:3c:e6:99:1f:75:57:d2:c1:56:9b:06:
         5c:98:8f:80:22:de:91:42:59:1c:1f:5a:0c:9f:4e:46:51:4f:
         81:9f:ce:33:84:c0:9e:c9:f5:46:09:67:68:73:dd:fd:a0:86:
         bc:df:18:1d:0a:19:5f:22
-----BEGIN CERTIFICATE-----
MIIF1TCCA72gAwIBAgIBBzANBgkqhkiG9w0BAQsFADCBjjELMAkGA1UEBhMCR0kx
EjAQBgNVBAgMCUdpYnJhbHRhcjESMBAGA1UEBwwJR2licmFsdGFyMQ8wDQYDVQQK
DAZQaG9uZVgxCzAJBgNVBAsMAkNBMRcwFQYDVQQDDA5jYS5waG9uZS14Lm5ldDEg
MB4GCSqGSIb3DQEJARYRYWRtaW5AcGhvbmUteC5uZXQwHhcNMTUwOTAzMTIyODM3
WhcNMTgwOTAyMTIyODM3WjB7MQswCQYDVQQGEwJHSTESMBAGA1UECAwJR2licmFs
dGFyMQ8wDQYDVQQKDAZQaG9uZVgxDzANBgNVBAsMBlNlcnZlcjEUMBIGA1UEAwwL
cGhvbmUteC5uZXQxIDAeBgkqhkiG9w0BCQEWEWFkbWluQHBob25lLXgubmV0MIIC
IjANBgkqhkiG9w0BAQEFAAOCAg8AMIICCgKCAgEAtSHWDMdL7mvRpEjzbfkAur4W
4Xk0jT47ewFppdKtS3OruAfQmVJ3XKyBTm8iZgBaTXpwJbE/7kNKqG9bwNKEjChC
5TowxccwQ7JvGSCwU00FO2/Gk+b3t6PWQSjruR8SSpibMZx7ehC3n8JHGJqPqIkf
vZF2pGZg0BtKzI0p14ImvOEvx/1bYcwE/pwHF1BVjlRzCOJt13UeW+kKIK+EhvB3
k+g4etkDaI0O1F69OiyXGM41kTbfHnZDzWV1O15kQBDfkUkg0YAPIFm2QNg9LzPh
vao4fXE1IZ3ijZdE9d4F5snqUbIhPkQt8i6J63loHXFTsIJhpxWdx0rEkGPNdvyE
TNS/VnvLGrWpDhFHzwGJ8UmA1hQdbOlHrmMHJPqZO0oMaWufptTRYcZpSkxfbGbc
lv9pzqL7bP5Nozm2AlLP8KQUwJoOVMDoEmrxiRdcaVK4lvzKsAE9hlCve0nmq7+y
ntpJDYoFwtSeCO5yBC6am50PNKSqQnDFm1AEn47owE0FDWafyh7AC2C8IlBrKiwS
WyBIcrqtBTxLRKlnfl5lxSUaDgpf4obc2BP4dE9iM6BFYw7caGC/Tzvz6CI4lmTr
H68cxQjs7J80vsCXowYU4L45nEmInh457bgj9x+4lIKXC4X5Y2vIn+8Pzr52g8RM
vQwwf7P3F7bSwhdhjy0CAwEAAaNQME4wHQYDVR0OBBYEFKT/Vu3W7ellwbi5n9uV
1rWlQDy+MB8GA1UdIwQYMBaAFE3U4G7P7+zeok/o9aVHvY9PiGu0MAwGA1UdEwQF
MAMBAf8wDQYJKoZIhvcNAQELBQADggIBAB0utzR8AlO4bNPMlKQrH/JAUXrOgP7I
KKz2E+3j3My+Fhc53qD2xIRos9mrNINsnAR7sYfbg+Xaxy5Tp23aBC52ubaaCy2y
vKMv/3AqEcIAiCZsodmfoxZJNUqYnmzCsWSXjngA4R0vhXMbytmnXEPVh3D6VaSJ
3HL/0Dyd9SGVS4KzSAugdP/xLrht4R6b0rYZYmuzmW3KTfeudEQ9nCJBWCzdr2EU
y724Tp2UGa9/PeJtKHJeVETo7VzmYQGRj/GsfYkpuZwg58KhrVWHXyHDLEEb1s1Q
gDhOrRPfxeBLj4qtzNXtJwn4ddsz/2oPlRm7ToQNI8fka/o2GPVE8oHHdMnUxjnN
Iv8OIwNm+J2MBPO4HcN1a89b4kNG3h0I/2H69iXxX6fZIaFrYSltsVgd6WvrO3t/
0aF4WB7k8AvBTXPctpG66wbwOpEFUDqusHGuL6O6U0MlNgPvuJDjaHurR/jirT7p
fRgGqOos0ByCp8Tavy+iS7dYA/tMMeBgYzULV77/K3UZbhx7Qbjc42JofjM92cJI
TqrAVOvzVcBt0+md5kXb0+XTQu+5wq2MJ1I+jOz/nWWkNYASVwyMsFmKTw2pvI27
rn085pkfdVfSwVabBlyYj4Ai3pFCWRwfWgyfTkZRT4GfzjOEwJ7J9UYJZ2hz3f2g
hrzfGB0KGV8i
-----END CERTIFICATE-----
