Certificate:
    Data:
        Version: 3 (0x2)
        Serial Number: 10 (0xa)
    Signature Algorithm: sha256WithRSAEncryption
        Issuer: C=GI, ST=Gibraltar, L=Gibraltar, O=PhoneX, OU=CA, CN=ca.phone-x.net/emailAddress=admin@phone-x.net
        Validity
            Not Before: Sep  3 14:50:35 2015 GMT
            Not After : Sep  2 14:50:35 2018 GMT
        Subject: C=GI, ST=Gibraltar, O=PhoneX, OU=Key Server, CN=phone-x.net/emailAddress=admin@phone-x.net
        Subject Public Key Info:
            Public Key Algorithm: rsaEncryption
                Public-Key: (4096 bit)
                Modulus:
                    00:bd:a3:78:0a:7a:94:de:0e:d4:c4:23:7a:a0:c7:
                    d1:4b:ff:96:af:08:34:9d:2b:f7:b6:f9:c2:99:b2:
                    62:ae:70:cc:5f:76:94:06:22:60:65:dd:68:be:af:
                    6b:7e:8c:1a:63:43:13:da:92:50:86:b2:5b:96:6a:
                    7e:7e:80:93:ba:df:82:7d:5f:2d:45:24:b4:1e:b4:
                    f7:c7:f4:99:c9:84:fb:4d:f0:00:02:b5:ef:8b:5e:
                    64:c4:14:6a:c3:42:e0:3e:45:b1:9d:ad:10:d4:66:
                    84:75:66:cf:87:2c:23:b7:3d:0a:b9:89:0a:25:2b:
                    6b:1d:8f:ac:8d:7c:5a:cf:ee:69:51:1f:d3:9b:60:
                    79:a9:91:dd:73:03:6c:ae:b5:70:6c:7d:86:78:6f:
                    6d:42:b0:1d:22:d3:0c:46:be:ac:0e:2c:63:ec:7c:
                    8d:3a:3d:01:04:ce:71:8d:c7:7b:41:d6:c1:bf:61:
                    16:b9:8f:06:f8:e1:f6:cd:85:19:81:14:29:23:7c:
                    49:4f:43:ca:31:5a:2d:6f:18:52:99:19:01:6f:a0:
                    be:72:f5:be:db:65:fc:b8:f6:8b:35:9f:46:08:74:
                    40:18:bb:12:0f:8d:05:fc:d2:dd:52:c8:12:b3:45:
                    e1:78:f6:40:f5:12:8e:f7:95:1d:3f:64:a0:de:ea:
                    a0:d1:bb:73:c2:4f:db:ec:55:f3:73:7c:bc:c7:0b:
                    48:45:3d:01:66:bb:38:c9:21:f7:0f:f9:85:cd:e1:
                    01:9f:ca:72:ee:90:a1:90:fc:5b:3e:14:7c:12:08:
                    e5:42:69:c1:81:9e:0e:42:e4:7e:9d:6a:f8:df:db:
                    17:88:59:36:23:75:f8:4f:4e:88:35:e5:17:de:0d:
                    e2:c5:98:af:13:08:38:bb:25:2f:88:4a:25:ec:e7:
                    6b:7e:f6:e8:5c:8b:18:ae:0a:36:ed:17:39:0d:4c:
                    56:c4:a7:b9:3f:99:32:68:13:4f:e8:7c:a3:61:bf:
                    7a:64:01:98:81:0e:8b:7e:0d:e5:5d:fa:37:96:32:
                    b2:5f:3e:09:53:25:94:a3:3d:d7:92:18:cb:8c:8c:
                    c1:56:dd:61:2c:c7:d3:71:31:00:97:fb:32:97:36:
                    bb:a3:56:aa:aa:1c:18:df:cb:cd:0c:98:f0:1d:51:
                    f6:2f:3d:85:df:6c:92:a3:f2:67:ee:18:10:8d:81:
                    27:5b:bf:d9:59:ec:80:b4:73:8f:17:8f:9c:fa:2d:
                    ec:dc:95:2b:71:90:aa:61:74:6f:59:1b:59:9e:cd:
                    c6:e4:5d:f3:33:2f:30:53:b5:c6:df:33:4b:63:70:
                    b8:a4:44:25:b0:a2:85:9a:43:1e:ad:51:2e:32:43:
                    b4:a5:eb
                Exponent: 65537 (0x10001)
        X509v3 extensions:
            X509v3 Subject Key Identifier: 
                75:AE:CB:5D:1C:E9:38:18:67:B7:EB:E7:5B:65:39:67:2F:B7:49:B9
            X509v3 Authority Key Identifier: 
                keyid:4D:D4:E0:6E:CF:EF:EC:DE:A2:4F:E8:F5:A5:47:BD:8F:4F:88:6B:B4

            X509v3 Basic Constraints: 
                CA:TRUE
    Signature Algorithm: sha256WithRSAEncryption
         34:5d:8f:d8:ca:dd:16:db:f2:d7:2c:bf:7e:2b:2e:b9:1a:3c:
         0f:08:22:6d:cd:a0:9c:92:ee:81:f2:cb:ab:c7:83:20:fb:86:
         bf:8d:2f:74:bd:eb:80:2e:98:f9:10:a5:0f:95:87:60:2f:04:
         df:b9:78:6e:d8:0c:84:89:29:60:bd:5a:24:62:cc:3c:32:46:
         70:ef:19:70:35:f3:d2:c4:f7:81:42:b5:7c:7e:5d:24:d4:5b:
         e6:f3:e1:1e:e9:74:74:14:90:3f:df:bd:ca:59:48:20:9f:7a:
         de:70:87:78:9e:12:d9:54:a1:4d:eb:7f:4a:59:e6:ba:7e:e0:
         73:3b:5b:75:bb:fc:4c:20:1c:44:86:82:f5:68:3b:69:e1:57:
         4c:18:e3:25:09:b1:c5:49:4a:97:fc:91:0d:b8:e4:b4:6b:69:
         81:97:6a:ae:10:92:ee:21:4c:fe:46:ec:33:d2:31:d5:59:92:
         e7:0a:cb:c7:64:5a:34:03:04:38:34:84:41:be:d6:a7:d8:5a:
         17:7e:56:a5:7f:61:41:dc:75:ec:08:5b:c7:22:55:48:37:70:
         15:d0:56:bf:67:1a:1e:96:7c:e5:29:8f:e9:ec:cd:86:03:02:
         09:bc:0f:e2:c2:a5:77:6b:28:94:b7:f5:1d:9b:f7:cf:de:8d:
         38:35:ba:99:d0:1e:5b:58:75:ec:9d:36:8e:1e:63:1d:2e:15:
         41:23:8c:d3:6b:8f:06:f1:6e:72:ba:d7:5c:73:74:28:26:25:
         68:a7:f6:06:47:83:1e:e7:c8:07:48:c5:c8:ed:48:03:cb:d2:
         ea:77:9c:b5:94:f7:a8:53:51:85:6d:01:aa:fe:06:8a:f9:47:
         ce:4f:a8:90:d4:d4:14:b4:4f:3a:8d:ae:15:0d:62:84:74:1d:
         b4:c6:f6:77:b7:8d:fc:18:9e:fd:6c:ac:98:78:58:b0:0a:f3:
         35:1c:48:ec:30:ab:5d:43:f3:54:01:36:4f:10:b0:2f:5d:3c:
         4c:80:5d:7a:d5:4e:db:18:40:bb:9a:1d:ce:cf:63:98:61:2e:
         2f:5f:49:9a:cc:b9:e8:1f:c4:70:26:53:a6:e5:e2:c7:34:fb:
         de:83:89:98:e5:2c:fb:e5:64:f6:bf:8a:b0:a7:38:43:85:62:
         17:7f:c8:10:48:a5:a1:d2:03:0e:82:13:89:3f:56:8f:e1:29:
         2c:74:4b:4d:47:cb:5e:15:a2:ce:f3:67:0d:28:12:18:28:9d:
         c6:29:08:7c:d4:e2:f6:f1:fc:1c:95:8d:aa:b6:2e:72:63:aa:
         e0:99:38:57:17:1d:f9:a9:e1:ae:8e:6b:70:95:cd:5d:12:ba:
         f6:53:cd:99:79:63:8b:fa
-----BEGIN CERTIFICATE-----
MIIF2TCCA8GgAwIBAgIBCjANBgkqhkiG9w0BAQsFADCBjjELMAkGA1UEBhMCR0kx
EjAQBgNVBAgMCUdpYnJhbHRhcjESMBAGA1UEBwwJR2licmFsdGFyMQ8wDQYDVQQK
DAZQaG9uZVgxCzAJBgNVBAsMAkNBMRcwFQYDVQQDDA5jYS5waG9uZS14Lm5ldDEg
MB4GCSqGSIb3DQEJARYRYWRtaW5AcGhvbmUteC5uZXQwHhcNMTUwOTAzMTQ1MDM1
WhcNMTgwOTAyMTQ1MDM1WjB/MQswCQYDVQQGEwJHSTESMBAGA1UECAwJR2licmFs
dGFyMQ8wDQYDVQQKDAZQaG9uZVgxEzARBgNVBAsMCktleSBTZXJ2ZXIxFDASBgNV
BAMMC3Bob25lLXgubmV0MSAwHgYJKoZIhvcNAQkBFhFhZG1pbkBwaG9uZS14Lm5l
dDCCAiIwDQYJKoZIhvcNAQEBBQADggIPADCCAgoCggIBAL2jeAp6lN4O1MQjeqDH
0Uv/lq8INJ0r97b5wpmyYq5wzF92lAYiYGXdaL6va36MGmNDE9qSUIayW5Zqfn6A
k7rfgn1fLUUktB6098f0mcmE+03wAAK174teZMQUasNC4D5FsZ2tENRmhHVmz4cs
I7c9CrmJCiUrax2PrI18Ws/uaVEf05tgeamR3XMDbK61cGx9hnhvbUKwHSLTDEa+
rA4sY+x8jTo9AQTOcY3He0HWwb9hFrmPBvjh9s2FGYEUKSN8SU9DyjFaLW8YUpkZ
AW+gvnL1vttl/Lj2izWfRgh0QBi7Eg+NBfzS3VLIErNF4Xj2QPUSjveVHT9koN7q
oNG7c8JP2+xV83N8vMcLSEU9AWa7OMkh9w/5hc3hAZ/Kcu6QoZD8Wz4UfBII5UJp
wYGeDkLkfp1q+N/bF4hZNiN1+E9OiDXlF94N4sWYrxMIOLslL4hKJezna3726FyL
GK4KNu0XOQ1MVsSnuT+ZMmgTT+h8o2G/emQBmIEOi34N5V36N5Yysl8+CVMllKM9
15IYy4yMwVbdYSzH03ExAJf7Mpc2u6NWqqocGN/LzQyY8B1R9i89hd9skqPyZ+4Y
EI2BJ1u/2VnsgLRzjxePnPot7NyVK3GQqmF0b1kbWZ7NxuRd8zMvMFO1xt8zS2Nw
uKREJbCihZpDHq1RLjJDtKXrAgMBAAGjUDBOMB0GA1UdDgQWBBR1rstdHOk4GGe3
6+dbZTlnL7dJuTAfBgNVHSMEGDAWgBRN1OBuz+/s3qJP6PWlR72PT4hrtDAMBgNV
HRMEBTADAQH/MA0GCSqGSIb3DQEBCwUAA4ICAQA0XY/Yyt0W2/LXLL9+Ky65GjwP
CCJtzaCcku6B8surx4Mg+4a/jS90veuALpj5EKUPlYdgLwTfuXhu2AyEiSlgvVok
Ysw8MkZw7xlwNfPSxPeBQrV8fl0k1Fvm8+Ee6XR0FJA/373KWUggn3recId4nhLZ
VKFN639KWea6fuBzO1t1u/xMIBxEhoL1aDtp4VdMGOMlCbHFSUqX/JENuOS0a2mB
l2quEJLuIUz+Ruwz0jHVWZLnCsvHZFo0AwQ4NIRBvtan2FoXflalf2FB3HXsCFvH
IlVIN3AV0Fa/ZxoelnzlKY/p7M2GAwIJvA/iwqV3ayiUt/Udm/fP3o04NbqZ0B5b
WHXsnTaOHmMdLhVBI4zTa48G8W5yutdcc3QoJiVop/YGR4Me58gHSMXI7UgDy9Lq
d5y1lPeoU1GFbQGq/gaK+UfOT6iQ1NQUtE86ja4VDWKEdB20xvZ3t438GJ79bKyY
eFiwCvM1HEjsMKtdQ/NUATZPELAvXTxMgF161U7bGEC7mh3Oz2OYYS4vX0mazLno
H8RwJlOm5eLHNPveg4mY5Sz75WT2v4qwpzhDhWIXf8gQSKWh0gMOghOJP1aP4Sks
dEtNR8teFaLO82cNKBIYKJ3GKQh81OL28fwclY2qti5yY6rgmThXFx35qeGujmtw
lc1dErr2U82ZeWOL+g==
-----END CERTIFICATE-----
